target datalayout = "e-m:e-p270:32:32-p271:32:32-p272:64:64-i64:64-i128:128-f80:128-n8:16:32:64-S128"
target triple = "x86_64-pc-linux-gnu"

@proto_register_cfm.ett = internal global [8 x ptr] [ptr @ett_cfm, ptr @ett_cfm_flags, ptr @ett_cfm_maid, ptr @ett_cfm_ccm_itu, ptr @ett_cfm_pdu, ptr @ett_cfm_all_tlvs, ptr @ett_cfm_tlv, ptr @ett_cfm_raps_status], align 16
@.str.390 = private unnamed_addr constant [43 x i8] c"CFM EOAM IEEE 802.1Q/ITU-T Y.1731 Protocol\00", align 1
@.str.391 = private unnamed_addr constant [4 x i8] c"CFM\00", align 1
@.str.392 = private unnamed_addr constant [4 x i8] c"cfm\00", align 1
@proto_cfm = internal global i32 0, align 4
@cfm_handle = internal global ptr null, align 8

; Function Attrs: null_pointer_is_valid sspstrong uwtable
define hidden void @proto_register_cfm() #0 {
  %1 = alloca ptr, align 8
  call void @llvm.lifetime.start.p0(i64 8, ptr %1) #5
  %2 = call i32 @proto_register_protocol(ptr noundef @.str.390, ptr noundef @.str.391, ptr noundef @.str.392)
  store i32 %2, ptr @proto_cfm, align 4
  %3 = load i32, ptr @proto_cfm, align 4
  %4 = call ptr @register_dissector(ptr noundef @.str.392, ptr noundef @dissect_cfm, i32 noundef %3)
  store ptr %4, ptr @cfm_handle, align 8
  %5 = load i32, ptr @proto_cfm, align 4
  call void @proto_register_field_array(i32 noundef %5, ptr noundef @proto_register_cfm.hf, i32 noundef 219)
  call void @proto_register_subtree_array(ptr noundef @proto_register_cfm.ett, i32 noundef 8)
  %6 = load i32, ptr @proto_cfm, align 4
  %7 = call ptr @expert_register_protocol(i32 noundef %6)
  store ptr %7, ptr %1, align 8
  %8 = load ptr, ptr %1, align 8
  call void @expert_register_field_array(ptr noundef %8, ptr noundef @proto_register_cfm.ei, i32 noundef 2)
  call void @llvm.lifetime.end.p0(i64 8, ptr %1) #5
  ret void
}